(dp1
S'data'
p2
(dp3
S'.sconf_temp/conftest_11.o'
p4
(dp5
S'builder'
p6
S'e6fdaec5d4356a512161fc4bce05285a'
p7
ssS'.sconf_temp/conftest_4.o'
p8
(dp9
g6
S'825c5f857d4f597fcd3381faf171d20e'
p10
ssS'.sconf_temp/conftest_9.o'
p11
(dp12
g6
S'ed7afdb24c0297b7bfe93389b515658e'
p13
ssS'.sconf_temp/conftest_10.o'
p14
(dp15
g6
S'19e9227d2be43f0c9c771df35d6d8e23'
p16
ssS'.sconf_temp/conftest_8.o'
p17
(dp18
g6
S'42e9e92b615abcef19f716d0a095e77e'
p19
ssS'.sconf_temp/conftest_7.o'
p20
(dp21
g6
S'1e9474c26a20fb3cfcfb45ad15239baa'
p22
sssS'scons_version'
p23
S'0.96.1'
p24
s.